; Function Attrs: mustprogress uwtable
define internal fastcc void @_ZSt8_DestroyIPN19cmJSONHelperBuilder6ObjectIN12_GLOBAL__N_111RootPresetsEE6MemberEEvT_S7_(ptr noundef %0, ptr noundef readnone %1) unnamed_addr #3 personality ptr @__gxx_personality_v0 {
  %.not4.i = icmp eq ptr %0, %1
  br i1 %.not4.i, label %_ZNSt12_Destroy_auxILb0EE9__destroyIPN19cmJSONHelperBuilder6ObjectIN12_GLOBAL__N_111RootPresetsEE6MemberEEEvT_S9_.exit, label %.lr.ph.i

.lr.ph.i:                                         ; preds = %2, %_ZSt8_DestroyIN19cmJSONHelperBuilder6ObjectIN12_GLOBAL__N_111RootPresetsEE6MemberEEvPT_.exit.i
  %.05.i = phi ptr [ %11, %_ZSt8_DestroyIN19cmJSONHelperBuilder6ObjectIN12_GLOBAL__N_111RootPresetsEE6MemberEEvPT_.exit.i ], [ %0, %2 ]
  %3 = getelementptr inbounds i8, ptr %.05.i, i64 32
  %4 = load ptr, ptr %3, align 8
  %.not.i.i.i.i.i = icmp eq ptr %4, null
  br i1 %.not.i.i.i.i.i, label %_ZSt8_DestroyIN19cmJSONHelperBuilder6ObjectIN12_GLOBAL__N_111RootPresetsEE6MemberEEvPT_.exit.i, label %5

5:                                                ; preds = %.lr.ph.i
  %6 = getelementptr inbounds i8, ptr %.05.i, i64 16
  %7 = invoke noundef zeroext i1 %4(ptr noundef nonnull align 8 dereferenceable(16) %6, ptr noundef nonnull align 8 dereferenceable(16) %6, i32 noundef 3)
          to label %_ZSt8_DestroyIN19cmJSONHelperBuilder6ObjectIN12_GLOBAL__N_111RootPresetsEE6MemberEEvPT_.exit.i unwind label %8

8:                                                ; preds = %5
  %9 = landingpad { ptr, i32 }
          catch ptr null
  %10 = extractvalue { ptr, i32 } %9, 0
  tail call void @__clang_call_terminate(ptr %10) #22
  unreachable

_ZSt8_DestroyIN19cmJSONHelperBuilder6ObjectIN12_GLOBAL__N_111RootPresetsEE6MemberEEvPT_.exit.i: ; preds = %5, %.lr.ph.i
  %11 = getelementptr inbounds i8, ptr %.05.i, i64 56
  %.not.i = icmp eq ptr %11, %1
  br i1 %.not.i, label %_ZNSt12_Destroy_auxILb0EE9__destroyIPN19cmJSONHelperBuilder6ObjectIN12_GLOBAL__N_111RootPresetsEE6MemberEEEvT_S9_.exit, label %.lr.ph.i, !llvm.loop !22

_ZNSt12_Destroy_auxILb0EE9__destroyIPN19cmJSONHelperBuilder6ObjectIN12_GLOBAL__N_111RootPresetsEE6MemberEEEvT_S9_.exit: ; preds = %_ZSt8_DestroyIN19cmJSONHelperBuilder6ObjectIN12_GLOBAL__N_111RootPresetsEE6MemberEEvPT_.exit.i, %2
  ret void
}